; Function Attrs: mustprogress uwtable
define internal fastcc void @_ZN12_GLOBAL__N_19calcDepthERKN2cv3MatES3_RK11StereoSetup(ptr dead_on_unwind noalias nonnull writable align 8 %0, ptr noundef nonnull align 8 dereferenceable(96) %1, ptr noundef nonnull align 8 dereferenceable(96) %2, ptr noundef nonnull readonly align 8 captures(none) dereferenceable(32) %3) unnamed_addr #3 personality ptr @__gxx_personality_v0 {
  %5 = alloca %"class.cv::Mat", align 8
  %6 = alloca %"class.cv::_InputArray", align 8
  %7 = alloca %"class.cv::_InputArray", align 8
  %8 = alloca %"class.cv::_OutputArray", align 8
  %9 = alloca %"class.cv::_OutputArray", align 8
  %10 = alloca %"class.cv::MatExpr", align 8
  call void @llvm.lifetime.start.p0(i64 96, ptr nonnull %5) #24
  call void @_ZN2cv3MatC1Ev(ptr noundef nonnull align 8 dereferenceable(96) %5) #24
  %11 = getelementptr inbounds nuw i8, ptr %3, i64 16
  %12 = load ptr, ptr %11, align 8, !tbaa !119
  call void @llvm.lifetime.start.p0(i64 24, ptr nonnull %6) #24
  %13 = getelementptr inbounds nuw i8, ptr %6, i64 16
  store i32 0, ptr %13, align 8, !tbaa !122
  %14 = getelementptr inbounds nuw i8, ptr %6, i64 20
  store i32 0, ptr %14, align 4, !tbaa !123
  store i32 16842752, ptr %6, align 8, !tbaa !115
  %15 = getelementptr inbounds nuw i8, ptr %6, i64 8
  store ptr %1, ptr %15, align 8, !tbaa !118
  call void @llvm.lifetime.start.p0(i64 24, ptr nonnull %7) #24
  %16 = getelementptr inbounds nuw i8, ptr %7, i64 16
  store i32 0, ptr %16, align 8, !tbaa !122
  %17 = getelementptr inbounds nuw i8, ptr %7, i64 20
  store i32 0, ptr %17, align 4, !tbaa !123
  store i32 16842752, ptr %7, align 8, !tbaa !115
  %18 = getelementptr inbounds nuw i8, ptr %7, i64 8
  store ptr %2, ptr %18, align 8, !tbaa !118
  call void @llvm.lifetime.start.p0(i64 24, ptr nonnull %8) #24
  %19 = getelementptr inbounds nuw i8, ptr %8, i64 8
  %20 = getelementptr inbounds nuw i8, ptr %8, i64 16
  store i64 0, ptr %20, align 8
  store i32 33619968, ptr %8, align 8, !tbaa !115
  store ptr %5, ptr %19, align 8, !tbaa !118
  %21 = load ptr, ptr %12, align 8, !tbaa !43
  %22 = getelementptr inbounds nuw i8, ptr %21, i64 64
  %23 = load ptr, ptr %22, align 8
  invoke void %23(ptr noundef nonnull align 8 dereferenceable(8) %12, ptr noundef nonnull align 8 dereferenceable(24) %6, ptr noundef nonnull align 8 dereferenceable(24) %7, ptr noundef nonnull align 8 dereferenceable(24) %8)
          to label %24 unwind label %41

24:                                               ; preds = %4
  call void @llvm.lifetime.end.p0(i64 24, ptr nonnull %8) #24
  call void @llvm.lifetime.end.p0(i64 24, ptr nonnull %7) #24
  call void @llvm.lifetime.end.p0(i64 24, ptr nonnull %6) #24
  call void @llvm.lifetime.start.p0(i64 24, ptr nonnull %9) #24
  %25 = getelementptr inbounds nuw i8, ptr %9, i64 8
  %26 = getelementptr inbounds nuw i8, ptr %9, i64 16
  store i64 0, ptr %26, align 8
  store i32 33619968, ptr %9, align 8, !tbaa !115
  store ptr %5, ptr %25, align 8, !tbaa !118
  invoke void @_ZNK2cv3Mat9convertToERKNS_12_OutputArrayEidd(ptr noundef nonnull align 8 dereferenceable(96) %5, ptr noundef nonnull align 8 dereferenceable(24) %9, i32 noundef 5, double noundef 6.250000e-02, double noundef 0.000000e+00)
          to label %27 unwind label %43

27:                                               ; preds = %24
  call void @llvm.lifetime.end.p0(i64 24, ptr nonnull %9) #24
  call void @llvm.lifetime.start.p0(i64 352, ptr nonnull %10) #24
  %28 = getelementptr inbounds nuw i8, ptr %3, i64 8
  %29 = load double, ptr %28, align 8, !tbaa !124
  %30 = load double, ptr %3, align 8, !tbaa !129
  %31 = fmul double %29, %30
  invoke void @_ZN2cvdvEdRKNS_3MatE(ptr dead_on_unwind nonnull writable sret(%"class.cv::MatExpr") align 8 %10, double noundef %31, ptr noundef nonnull align 8 dereferenceable(96) %5)
          to label %32 unwind label %45

32:                                               ; preds = %27
  call void @_ZN2cv3MatC1Ev(ptr noundef nonnull align 8 dereferenceable(96) %0) #24
  %33 = load ptr, ptr %10, align 8, !tbaa !130, !noalias !136
  %34 = load ptr, ptr %33, align 8, !tbaa !43
  %35 = getelementptr inbounds nuw i8, ptr %34, i64 24
  %36 = load ptr, ptr %35, align 8
  invoke void %36(ptr noundef nonnull align 8 dereferenceable(8) %33, ptr noundef nonnull align 8 dereferenceable(352) %10, ptr noundef nonnull align 8 dereferenceable(96) %0, i32 noundef -1)
          to label %_ZNK2cv7MatExprcvNS_3MatEEv.exit unwind label %.body

.body:                                            ; preds = %32
  %37 = landingpad { ptr, i32 }
          cleanup
  call void @_ZN2cv3MatD1Ev(ptr noundef nonnull align 8 dereferenceable(96) %0) #24
  call void @_ZN2cv7MatExprD2Ev(ptr noundef nonnull align 8 dereferenceable(352) %10) #24
  br label %47

_ZNK2cv7MatExprcvNS_3MatEEv.exit:                 ; preds = %32
  %38 = getelementptr inbounds nuw i8, ptr %10, i64 208
  call void @_ZN2cv3MatD1Ev(ptr noundef nonnull align 8 dereferenceable(96) %38) #24
  %39 = getelementptr inbounds nuw i8, ptr %10, i64 112
  call void @_ZN2cv3MatD1Ev(ptr noundef nonnull align 8 dereferenceable(96) %39) #24
  %40 = getelementptr inbounds nuw i8, ptr %10, i64 16
  call void @_ZN2cv3MatD1Ev(ptr noundef nonnull align 8 dereferenceable(96) %40) #24
  call void @llvm.lifetime.end.p0(i64 352, ptr nonnull %10) #24
  call void @_ZN2cv3MatD1Ev(ptr noundef nonnull align 8 dereferenceable(96) %5) #24
  call void @llvm.lifetime.end.p0(i64 96, ptr nonnull %5) #24
  ret void

41:                                               ; preds = %4
  %42 = landingpad { ptr, i32 }
          cleanup
  call void @llvm.lifetime.end.p0(i64 24, ptr nonnull %8) #24
  call void @llvm.lifetime.end.p0(i64 24, ptr nonnull %7) #24
  call void @llvm.lifetime.end.p0(i64 24, ptr nonnull %6) #24
  br label %48

43:                                               ; preds = %24
  %44 = landingpad { ptr, i32 }
          cleanup
  call void @llvm.lifetime.end.p0(i64 24, ptr nonnull %9) #24
  br label %48

45:                                               ; preds = %27
  %46 = landingpad { ptr, i32 }
          cleanup
  br label %47

47:                                               ; preds = %.body, %45
  %.pn17 = phi { ptr, i32 } [ %37, %.body ], [ %46, %45 ]
  call void @llvm.lifetime.end.p0(i64 352, ptr nonnull %10) #24
  br label %48

48:                                               ; preds = %47, %43, %41
  %.pn17.pn = phi { ptr, i32 } [ %.pn17, %47 ], [ %44, %43 ], [ %42, %41 ]
  call void @_ZN2cv3MatD1Ev(ptr noundef nonnull align 8 dereferenceable(96) %5) #24
  call void @llvm.lifetime.end.p0(i64 96, ptr nonnull %5) #24
  resume { ptr, i32 } %.pn17.pn
}